; Function Attrs: mustprogress uwtable
define noundef i64 @ggml_backend_buffer_get_max_size(ptr noundef readonly captures(none) %0) local_unnamed_addr #0 {
  %2 = getelementptr inbounds nuw i8, ptr %0, i64 72
  %3 = load ptr, ptr %2, align 8, !tbaa !10
  %4 = getelementptr inbounds nuw i8, ptr %3, i64 24
  %5 = load ptr, ptr %4, align 8, !tbaa !23
  %.not.i = icmp eq ptr %5, null
  br i1 %.not.i, label %ggml_backend_buft_get_max_size.exit, label %6

6:                                                ; preds = %1
  %7 = tail call noundef i64 %5(ptr noundef nonnull %3)
  br label %ggml_backend_buft_get_max_size.exit

ggml_backend_buft_get_max_size.exit:              ; preds = %1, %6
  %.0.i = phi i64 [ %7, %6 ], [ -1, %1 ]
  ret i64 %.0.i
}